target datalayout = "e-m:e-p270:32:32-p271:32:32-p272:64:64-i64:64-i128:128-f80:128-n8:16:32:64-S128"
target triple = "x86_64-unknown-linux-gnu"

@.str.73 = private unnamed_addr constant [5 x i8] c"auto\00", align 1

; Function Attrs: nounwind sspstrong uwtable
define internal void @set_uuid(ptr noundef %obj, ptr noundef %v, ptr noundef %name, ptr noundef %opaque, ptr noundef %errp) #0 {
entry:
  %obj.addr = alloca ptr, align 8
  %v.addr = alloca ptr, align 8
  %name.addr = alloca ptr, align 8
  %opaque.addr = alloca ptr, align 8
  %errp.addr = alloca ptr, align 8
  %prop = alloca ptr, align 8
  %uuid = alloca ptr, align 8
  %str = alloca ptr, align 8
  store ptr %obj, ptr %obj.addr, align 8
  store ptr %v, ptr %v.addr, align 8
  store ptr %name, ptr %name.addr, align 8
  store ptr %opaque, ptr %opaque.addr, align 8
  store ptr %errp, ptr %errp.addr, align 8
  %0 = load ptr, ptr %opaque.addr, align 8
  store ptr %0, ptr %prop, align 8
  %1 = load ptr, ptr %obj.addr, align 8
  %2 = load ptr, ptr %prop, align 8
  %call = call ptr @object_field_prop_ptr(ptr noundef %1, ptr noundef %2)
  store ptr %call, ptr %uuid, align 8
  %3 = load ptr, ptr %v.addr, align 8
  %4 = load ptr, ptr %name.addr, align 8
  %5 = load ptr, ptr %errp.addr, align 8
  %call1 = call zeroext i1 @visit_type_str(ptr noundef %3, ptr noundef %4, ptr noundef %str, ptr noundef %5)
  br i1 %call1, label %if.end, label %if.then

if.then:                                          ; preds = %entry
  br label %return

if.end:                                           ; preds = %entry
  %6 = load ptr, ptr %str, align 8
  %call2 = call i32 @strcmp(ptr noundef %6, ptr noundef @.str.73) #10
  %tobool = icmp ne i32 %call2, 0
  br i1 %tobool, label %if.else, label %if.then3

if.then3:                                         ; preds = %if.end
  %7 = load ptr, ptr %uuid, align 8
  call void @qemu_uuid_generate(ptr noundef %7)
  br label %if.end7

if.else:                                          ; preds = %if.end
  %8 = load ptr, ptr %str, align 8
  %9 = load ptr, ptr %uuid, align 8
  %call4 = call i32 @qemu_uuid_parse(ptr noundef %8, ptr noundef %9)
  %cmp = icmp slt i32 %call4, 0
  br i1 %cmp, label %if.then5, label %if.end6

if.then5:                                         ; preds = %if.else
  %10 = load ptr, ptr %errp.addr, align 8
  %11 = load ptr, ptr %obj.addr, align 8
  %12 = load ptr, ptr %name.addr, align 8
  %13 = load ptr, ptr %str, align 8
  call void @error_set_from_qdev_prop_error(ptr noundef %10, i32 noundef 22, ptr noundef %11, ptr noundef %12, ptr noundef %13)
  br label %if.end6

if.end6:                                          ; preds = %if.then5, %if.else
  br label %if.end7

if.end7:                                          ; preds = %if.end6, %if.then3
  %14 = load ptr, ptr %str, align 8
  call void @g_free(ptr noundef %14)
  br label %return

return:                                           ; preds = %if.end7, %if.then
  ret void
}