; Function Attrs: nounwind sspstrong uwtable
define internal void @set_uuid(ptr noundef %obj, ptr noundef %v, ptr noundef %name, ptr noundef %opaque, ptr noundef %errp) #0 {
entry:
  %str = alloca ptr, align 8
  %call = tail call ptr @object_field_prop_ptr(ptr noundef %obj, ptr noundef %opaque) #10
  %call1 = call zeroext i1 @visit_type_str(ptr noundef %v, ptr noundef %name, ptr noundef nonnull %str, ptr noundef %errp) #10
  br i1 %call1, label %if.end, label %return

if.end:                                           ; preds = %entry
  %0 = load ptr, ptr %str, align 8
  %call2 = call i32 @strcmp(ptr noundef nonnull dereferenceable(1) %0, ptr noundef nonnull dereferenceable(5) @.str.73) #13
  %tobool.not = icmp eq i32 %call2, 0
  br i1 %tobool.not, label %if.then3, label %if.else

if.then3:                                         ; preds = %if.end
  call void @qemu_uuid_generate(ptr noundef %call) #10
  br label %if.end7

if.else:                                          ; preds = %if.end
  %call4 = call i32 @qemu_uuid_parse(ptr noundef nonnull %0, ptr noundef %call) #10
  %cmp = icmp slt i32 %call4, 0
  br i1 %cmp, label %if.then5, label %if.end7

if.then5:                                         ; preds = %if.else
  %1 = load ptr, ptr %str, align 8
  call void @error_set_from_qdev_prop_error(ptr noundef %errp, i32 noundef 22, ptr noundef %obj, ptr noundef %name, ptr noundef %1) #10
  br label %if.end7

if.end7:                                          ; preds = %if.else, %if.then5, %if.then3
  %2 = load ptr, ptr %str, align 8
  call void @g_free(ptr noundef %2) #10
  br label %return

return:                                           ; preds = %entry, %if.end7
  ret void
}